target datalayout = "e-m:e-p270:32:32-p271:32:32-p272:64:64-i64:64-i128:128-f80:128-n8:16:32:64-S128"
target triple = "x86_64-unknown-linux-gnu"

%struct.redisServer = type { i32, i64, ptr, ptr, ptr, i32, i32, i32, i32, i32, ptr, ptr, ptr, ptr, ptr, ptr, i32, i32, i64, i32, i32, i32, i32, ptr, i32, i32, [41 x i8], i32, i64, i32, i32, i32, ptr, ptr, i32, i32, i64, ptr, ptr, ptr, ptr, [2 x i32], i32, i32, i32, i32, i32, [16 x ptr], i32, ptr, ptr, i32, [8 x %struct.connListener], i32, %struct.connListener, ptr, ptr, ptr, ptr, ptr, ptr, ptr, ptr, ptr, ptr, i32, ptr, i32, ptr, [3 x %struct.pause_event], [256 x i8], ptr, i64, i32, i32, i32, i32, i64, i32, i32, i32, i32, i32, i64, i64, i64, i64, i64, i64, i64, i64, i64, double, i64, i64, i64, i64, i64, i64, i64, i64, i64, i64, i64, i64, i64, i64, i64, i64, i64, i64, i64, i64, double, i64, i64, i64, i64, i64, ptr, i64, i64, i64, %struct.malloc_stats, i64, i64, i64, i64, i64, i64, i64, i64, i64, i64, i64, i64, double, [4 x i64], i64, i64, i64, i64, i64, i64, i64, i64, i64, i64, [7 x %struct.anon], i64, i64, i64, i64, i64, i64, [4 x %struct.durationStats], i32, i32, i32, i32, i32, i32, i32, i32, i32, i32, i64, i32, i32, i32, i32, i64, i64, i32, i32, i32, i32, i32, ptr, [3 x %struct.clientBufferLimitsConfig], i32, i32, ptr, i32, i32, i32, i32, ptr, ptr, i32, i32, i64, i64, i64, i64, i64, i32, i32, ptr, i32, i32, i64, i64, i64, i64, i64, i32, i32, i64, i32, i32, i32, i32, i32, i32, i32, i32, ptr, i32, i64, i64, i64, i64, ptr, i32, ptr, i32, i32, i32, i64, i64, i64, i64, i32, i32, i32, i32, i32, i32, ptr, i32, i32, ptr, i32, i32, i32, [2 x i32], i32, %struct.redisOpArray, i32, ptr, i32, ptr, i32, i32, i32, i32, i32, i32, i32, [41 x i8], [41 x i8], i64, i64, i64, i64, i32, i32, ptr, i64, i64, i64, i32, i32, i32, i32, i32, i32, i32, i64, ptr, ptr, ptr, ptr, i32, i32, ptr, ptr, i32, i32, i64, i64, i64, ptr, i32, ptr, i64, i32, i32, i32, i64, i32, i32, i32, i32, ptr, i32, i32, [41 x i8], i64, i32, ptr, i32, i32, i64, i64, i32, i32, i32, i32, i32, i64, [3 x i32], i32, i32, i32, [9 x i32], ptr, ptr, i32, i64, ptr, ptr, i32, i32, i32, i32, i64, i64, i64, i64, i64, i64, i64, i64, i64, i64, i32, i32, i64, i64, i32, i64, i64, i64, i64, i64, ptr, ptr, i32, ptr, i32, i32, i32, i64, i64, ptr, ptr, i32, i32, i32, i32, i32, ptr, ptr, ptr, i32, i32, i32, i32, i32, i32, i32, i64, i32, i64, i32, i32, i32, i32, i32, i32, i32, i64, ptr, ptr, i64, ptr, i32, %struct.aclInfo, i32, i64, i32, i32, i32, %struct.redisTLSContextConfig, ptr, ptr, ptr, ptr, ptr, i64, i32, ptr, i32, i32, i32, i64, i32, ptr }
%struct.connListener = type { [16 x i32], i32, ptr, i32, i32, ptr, ptr }
%struct.pause_event = type { i32, i64 }
%struct.malloc_stats = type { i64, i64, i64, i64, i64 }
%struct.anon = type { i64, i64, [16 x i64], i32 }
%struct.durationStats = type { i64, i64, i64 }
%struct.clientBufferLimitsConfig = type { i64, i64, i64 }
%struct.redisOpArray = type { ptr, i32, i32 }
%struct.aclInfo = type { i64, i64, i64, i64 }
%struct.redisTLSContextConfig = type { ptr, ptr, ptr, ptr, ptr, ptr, ptr, ptr, ptr, ptr, ptr, ptr, i32, i32, i32, i32 }

@server = external global %struct.redisServer, align 8
@.str.255 = private unnamed_addr constant [19 x i8] c"\0D\0A# Cluster info\0D\0A\00", align 1
@.str.256 = private unnamed_addr constant [37 x i8] c"\0A------ CLUSTER NODES OUTPUT ------\0A\00", align 1
@.str.257 = private unnamed_addr constant [28 x i8] c"\0A------ INFO OUTPUT ------\0A\00", align 1
@.str.258 = private unnamed_addr constant [4 x i8] c"all\00", align 1
@.str.259 = private unnamed_addr constant [35 x i8] c"\0A------ CLIENT LIST OUTPUT ------\0A\00", align 1

; Function Attrs: nounwind uwtable
define dso_local ptr @genClusterDebugString(ptr noundef %infostring) #0 {
entry:
  %infostring.addr = alloca ptr, align 8
  %cluster_info = alloca ptr, align 8
  %cluster_nodes = alloca ptr, align 8
  store ptr %infostring, ptr %infostring.addr, align 8
  %call = call ptr @genClusterInfoString()
  store ptr %call, ptr %cluster_info, align 8
  %call1 = call ptr @clusterGenNodesDescription(ptr noundef null, i32 noundef 0, i32 noundef 0)
  store ptr %call1, ptr %cluster_nodes, align 8
  %0 = load ptr, ptr %infostring.addr, align 8
  %call2 = call ptr (ptr, ptr, ...) @sdscatprintf(ptr noundef %0, ptr noundef @.str.255)
  store ptr %call2, ptr %infostring.addr, align 8
  %1 = load ptr, ptr %infostring.addr, align 8
  %2 = load ptr, ptr %cluster_info, align 8
  %call3 = call ptr @sdscatsds(ptr noundef %1, ptr noundef %2)
  store ptr %call3, ptr %infostring.addr, align 8
  %3 = load ptr, ptr %infostring.addr, align 8
  %call4 = call ptr (ptr, ptr, ...) @sdscatprintf(ptr noundef %3, ptr noundef @.str.256)
  store ptr %call4, ptr %infostring.addr, align 8
  %4 = load ptr, ptr %infostring.addr, align 8
  %5 = load ptr, ptr %cluster_nodes, align 8
  %call5 = call ptr @sdscatsds(ptr noundef %4, ptr noundef %5)
  store ptr %call5, ptr %infostring.addr, align 8
  %6 = load ptr, ptr %cluster_info, align 8
  call void @sdsfree(ptr noundef %6)
  %7 = load ptr, ptr %cluster_nodes, align 8
  call void @sdsfree(ptr noundef %7)
  %8 = load ptr, ptr %infostring.addr, align 8
  ret ptr %8
}

; Function Attrs: nounwind uwtable
define dso_local void @logServerInfo() #0 {
entry:
  %infostring = alloca ptr, align 8
  %clients = alloca ptr, align 8
  %all = alloca i32, align 4
  %everything = alloca i32, align 4
  %argv = alloca [1 x ptr], align 8
  %section_dict = alloca ptr, align 8
  call void @serverLogRaw(i32 noundef 1027, ptr noundef @.str.257)
  store i32 0, ptr %all, align 4
  store i32 0, ptr %everything, align 4
  %call = call ptr @createStringObject(ptr noundef @.str.258, i64 noundef 3)
  %arrayidx = getelementptr inbounds [1 x ptr], ptr %argv, i64 0, i64 0
  store ptr %call, ptr %arrayidx, align 8
  %arraydecay = getelementptr inbounds [1 x ptr], ptr %argv, i64 0, i64 0
  %call1 = call ptr @genInfoSectionDict(ptr noundef %arraydecay, i32 noundef 1, ptr noundef null, ptr noundef %all, ptr noundef %everything)
  store ptr %call1, ptr %section_dict, align 8
  %0 = load ptr, ptr %section_dict, align 8
  %1 = load i32, ptr %all, align 4
  %2 = load i32, ptr %everything, align 4
  %call2 = call ptr @genRedisInfoString(ptr noundef %0, i32 noundef %1, i32 noundef %2)
  store ptr %call2, ptr %infostring, align 8
  %3 = load i32, ptr getelementptr inbounds (%struct.redisServer, ptr @server, i32 0, i32 362), align 4
  %tobool = icmp ne i32 %3, 0
  br i1 %tobool, label %if.then, label %if.end

if.then:                                          ; preds = %entry
  %4 = load ptr, ptr %infostring, align 8
  %call3 = call ptr @genClusterDebugString(ptr noundef %4)
  store ptr %call3, ptr %infostring, align 8
  br label %if.end

if.end:                                           ; preds = %if.then, %entry
  %5 = load ptr, ptr %infostring, align 8
  call void @serverLogRaw(i32 noundef 1027, ptr noundef %5)
  call void @serverLogRaw(i32 noundef 1027, ptr noundef @.str.259)
  %call4 = call ptr @getAllClientsInfoString(i32 noundef -1)
  store ptr %call4, ptr %clients, align 8
  %6 = load ptr, ptr %clients, align 8
  call void @serverLogRaw(i32 noundef 1027, ptr noundef %6)
  %7 = load ptr, ptr %infostring, align 8
  call void @sdsfree(ptr noundef %7)
  %8 = load ptr, ptr %clients, align 8
  call void @sdsfree(ptr noundef %8)
  %9 = load ptr, ptr %section_dict, align 8
  call void @releaseInfoSectionDict(ptr noundef %9)
  %arrayidx5 = getelementptr inbounds [1 x ptr], ptr %argv, i64 0, i64 0
  %10 = load ptr, ptr %arrayidx5, align 8
  call void @decrRefCount(ptr noundef %10)
  ret void
}