; Function Attrs: nounwind uwtable
define dso_local void @logServerInfo() local_unnamed_addr #0 {
entry:
  %all = alloca i32, align 4
  %everything = alloca i32, align 4
  %argv = alloca [1 x ptr], align 8
  tail call void @serverLogRaw(i32 noundef 1027, ptr noundef nonnull @.str.257) #22
  store i32 0, ptr %all, align 4
  store i32 0, ptr %everything, align 4
  %call = tail call ptr @createStringObject(ptr noundef nonnull @.str.258, i64 noundef 3) #22
  store ptr %call, ptr %argv, align 8
  %call1 = call ptr @genInfoSectionDict(ptr noundef nonnull %argv, i32 noundef 1, ptr noundef null, ptr noundef nonnull %all, ptr noundef nonnull %everything) #22
  %0 = load i32, ptr %all, align 4
  %1 = load i32, ptr %everything, align 4
  %call2 = call ptr @genRedisInfoString(ptr noundef %call1, i32 noundef %0, i32 noundef %1) #22
  %2 = load i32, ptr getelementptr inbounds (%struct.redisServer, ptr @server, i64 0, i32 362), align 4
  %tobool.not = icmp eq i32 %2, 0
  br i1 %tobool.not, label %if.end, label %if.then

if.then:                                          ; preds = %entry
  %call.i = call ptr @genClusterInfoString() #22
  %call1.i = call ptr @clusterGenNodesDescription(ptr noundef null, i32 noundef 0, i32 noundef 0) #22
  %call2.i = call ptr (ptr, ptr, ...) @sdscatprintf(ptr noundef %call2, ptr noundef nonnull @.str.255) #22
  %call3.i = call ptr @sdscatsds(ptr noundef %call2.i, ptr noundef %call.i) #22
  %call4.i = call ptr (ptr, ptr, ...) @sdscatprintf(ptr noundef %call3.i, ptr noundef nonnull @.str.256) #22
  %call5.i = call ptr @sdscatsds(ptr noundef %call4.i, ptr noundef %call1.i) #22
  call void @sdsfree(ptr noundef %call.i) #22
  call void @sdsfree(ptr noundef %call1.i) #22
  br label %if.end

if.end:                                           ; preds = %if.then, %entry
  %infostring.0 = phi ptr [ %call5.i, %if.then ], [ %call2, %entry ]
  call void @serverLogRaw(i32 noundef 1027, ptr noundef %infostring.0) #22
  call void @serverLogRaw(i32 noundef 1027, ptr noundef nonnull @.str.259) #22
  %call4 = call ptr @getAllClientsInfoString(i32 noundef -1) #22
  call void @serverLogRaw(i32 noundef 1027, ptr noundef %call4) #22
  call void @sdsfree(ptr noundef %infostring.0) #22
  call void @sdsfree(ptr noundef %call4) #22
  call void @releaseInfoSectionDict(ptr noundef %call1) #22
  %3 = load ptr, ptr %argv, align 8
  call void @decrRefCount(ptr noundef %3) #22
  ret void
}